target datalayout = "e-m:e-p270:32:32-p271:32:32-p272:64:64-i64:64-i128:128-f80:128-n8:16:32:64-S128"
target triple = "x86_64-pc-linux-gnu"

%"class.OpenSubdiv::v3_6_0::Bfr::RegularPatchBuilder" = type { ptr, i8, i32, i32, i32 }

@.str = private unnamed_addr constant [22 x i8] c"RegularPatchBuilder:\0A\00", align 1
@.str.1 = private unnamed_addr constant [44 x i8] c"    patch type  = REGULAR (B-Spline, quad)\0A\00", align 1
@.str.2 = private unnamed_addr constant [42 x i8] c"    patch type  = LOOP (Box-Spline, tri)\0A\00", align 1
@.str.3 = private unnamed_addr constant [22 x i8] c"    patch size  = %d\0A\00", align 1
@.str.4 = private unnamed_addr constant [22 x i8] c"    is quad     = %d\0A\00", align 1
@.str.5 = private unnamed_addr constant [22 x i8] c"    is boundary = %d\0A\00", align 1
@.str.6 = private unnamed_addr constant [18 x i8] c"    patch points:\00", align 1
@.str.7 = private unnamed_addr constant [18 x i8] c"                 \00", align 1
@.str.8 = private unnamed_addr constant [20 x i8] c"%s %4d %4d %4d %4d\0A\00", align 1
@.str.9 = private unnamed_addr constant [19 x i8] c"%s       %4d  %4d\0A\00", align 1
@.str.10 = private unnamed_addr constant [21 x i8] c"%s    %4d  %4d  %4d\0A\00", align 1
@.str.11 = private unnamed_addr constant [23 x i8] c"%s %4d  %4d  %4d  %4d\0A\00", align 1

; Function Attrs: mustprogress uwtable
define void @_ZNK10OpenSubdiv6v3_6_03Bfr19RegularPatchBuilder5printEPKi(ptr noundef nonnull align 8 dereferenceable(24) %0, ptr noundef %1) #0 align 2 {
  %3 = alloca ptr, align 8
  %4 = alloca ptr, align 8
  %5 = alloca ptr, align 8
  %6 = alloca ptr, align 8
  store ptr %0, ptr %3, align 8
  store ptr %1, ptr %4, align 8
  %7 = load ptr, ptr %3, align 8
  %8 = call i32 (ptr, ...) @printf(ptr noundef @.str)
  %9 = getelementptr inbounds nuw %"class.OpenSubdiv::v3_6_0::Bfr::RegularPatchBuilder", ptr %7, i32 0, i32 4
  %10 = load i32, ptr %9, align 4
  %11 = icmp eq i32 %10, 6
  br i1 %11, label %12, label %14

12:                                               ; preds = %2
  %13 = call i32 (ptr, ...) @printf(ptr noundef @.str.1)
  br label %22

14:                                               ; preds = %2
  %15 = getelementptr inbounds nuw %"class.OpenSubdiv::v3_6_0::Bfr::RegularPatchBuilder", ptr %7, i32 0, i32 4
  %16 = load i32, ptr %15, align 4
  %17 = icmp eq i32 %16, 5
  br i1 %17, label %18, label %20

18:                                               ; preds = %14
  %19 = call i32 (ptr, ...) @printf(ptr noundef @.str.2)
  br label %21

20:                                               ; preds = %14
  br label %21

21:                                               ; preds = %20, %18
  br label %22

22:                                               ; preds = %21, %12
  %23 = getelementptr inbounds nuw %"class.OpenSubdiv::v3_6_0::Bfr::RegularPatchBuilder", ptr %7, i32 0, i32 3
  %24 = load i32, ptr %23, align 8
  %25 = call i32 (ptr, ...) @printf(ptr noundef @.str.3, i32 noundef %24)
  %26 = getelementptr inbounds nuw %"class.OpenSubdiv::v3_6_0::Bfr::RegularPatchBuilder", ptr %7, i32 0, i32 1
  %27 = load i8, ptr %26, align 8
  %28 = and i8 %27, 1
  %29 = zext i8 %28 to i32
  %30 = call i32 (ptr, ...) @printf(ptr noundef @.str.4, i32 noundef %29)
  %31 = getelementptr inbounds nuw %"class.OpenSubdiv::v3_6_0::Bfr::RegularPatchBuilder", ptr %7, i32 0, i32 1
  %32 = load i8, ptr %31, align 8
  %33 = lshr i8 %32, 1
  %34 = and i8 %33, 1
  %35 = zext i8 %34 to i32
  %36 = call i32 (ptr, ...) @printf(ptr noundef @.str.5, i32 noundef %35)
  %37 = load ptr, ptr %4, align 8
  %38 = icmp ne ptr %37, null
  br i1 %38, label %39, label %148

39:                                               ; preds = %22
  store ptr @.str.6, ptr %5, align 8
  store ptr @.str.7, ptr %6, align 8
  %40 = getelementptr inbounds nuw %"class.OpenSubdiv::v3_6_0::Bfr::RegularPatchBuilder", ptr %7, i32 0, i32 1
  %41 = load i8, ptr %40, align 8
  %42 = and i8 %41, 1
  %43 = zext i8 %42 to i32
  %44 = icmp ne i32 %43, 0
  br i1 %44, label %45, label %102

45:                                               ; preds = %39
  %46 = load ptr, ptr %5, align 8
  %47 = load ptr, ptr %4, align 8
  %48 = getelementptr inbounds i32, ptr %47, i64 12
  %49 = load i32, ptr %48, align 4
  %50 = load ptr, ptr %4, align 8
  %51 = getelementptr inbounds i32, ptr %50, i64 13
  %52 = load i32, ptr %51, align 4
  %53 = load ptr, ptr %4, align 8
  %54 = getelementptr inbounds i32, ptr %53, i64 14
  %55 = load i32, ptr %54, align 4
  %56 = load ptr, ptr %4, align 8
  %57 = getelementptr inbounds i32, ptr %56, i64 15
  %58 = load i32, ptr %57, align 4
  %59 = call i32 (ptr, ...) @printf(ptr noundef @.str.8, ptr noundef %46, i32 noundef %49, i32 noundef %52, i32 noundef %55, i32 noundef %58)
  %60 = load ptr, ptr %6, align 8
  %61 = load ptr, ptr %4, align 8
  %62 = getelementptr inbounds i32, ptr %61, i64 8
  %63 = load i32, ptr %62, align 4
  %64 = load ptr, ptr %4, align 8
  %65 = getelementptr inbounds i32, ptr %64, i64 9
  %66 = load i32, ptr %65, align 4
  %67 = load ptr, ptr %4, align 8
  %68 = getelementptr inbounds i32, ptr %67, i64 10
  %69 = load i32, ptr %68, align 4
  %70 = load ptr, ptr %4, align 8
  %71 = getelementptr inbounds i32, ptr %70, i64 11
  %72 = load i32, ptr %71, align 4
  %73 = call i32 (ptr, ...) @printf(ptr noundef @.str.8, ptr noundef %60, i32 noundef %63, i32 noundef %66, i32 noundef %69, i32 noundef %72)
  %74 = load ptr, ptr %6, align 8
  %75 = load ptr, ptr %4, align 8
  %76 = getelementptr inbounds i32, ptr %75, i64 4
  %77 = load i32, ptr %76, align 4
  %78 = load ptr, ptr %4, align 8
  %79 = getelementptr inbounds i32, ptr %78, i64 5
  %80 = load i32, ptr %79, align 4
  %81 = load ptr, ptr %4, align 8
  %82 = getelementptr inbounds i32, ptr %81, i64 6
  %83 = load i32, ptr %82, align 4
  %84 = load ptr, ptr %4, align 8
  %85 = getelementptr inbounds i32, ptr %84, i64 7
  %86 = load i32, ptr %85, align 4
  %87 = call i32 (ptr, ...) @printf(ptr noundef @.str.8, ptr noundef %74, i32 noundef %77, i32 noundef %80, i32 noundef %83, i32 noundef %86)
  %88 = load ptr, ptr %6, align 8
  %89 = load ptr, ptr %4, align 8
  %90 = getelementptr inbounds i32, ptr %89, i64 0
  %91 = load i32, ptr %90, align 4
  %92 = load ptr, ptr %4, align 8
  %93 = getelementptr inbounds i32, ptr %92, i64 1
  %94 = load i32, ptr %93, align 4
  %95 = load ptr, ptr %4, align 8
  %96 = getelementptr inbounds i32, ptr %95, i64 2
  %97 = load i32, ptr %96, align 4
  %98 = load ptr, ptr %4, align 8
  %99 = getelementptr inbounds i32, ptr %98, i64 3
  %100 = load i32, ptr %99, align 4
  %101 = call i32 (ptr, ...) @printf(ptr noundef @.str.8, ptr noundef %88, i32 noundef %91, i32 noundef %94, i32 noundef %97, i32 noundef %100)
  br label %147

102:                                              ; preds = %39
  %103 = load ptr, ptr %5, align 8
  %104 = load ptr, ptr %4, align 8
  %105 = getelementptr inbounds i32, ptr %104, i64 10
  %106 = load i32, ptr %105, align 4
  %107 = load ptr, ptr %4, align 8
  %108 = getelementptr inbounds i32, ptr %107, i64 11
  %109 = load i32, ptr %108, align 4
  %110 = call i32 (ptr, ...) @printf(ptr noundef @.str.9, ptr noundef %103, i32 noundef %106, i32 noundef %109)
  %111 = load ptr, ptr %6, align 8
  %112 = load ptr, ptr %4, align 8
  %113 = getelementptr inbounds i32, ptr %112, i64 7
  %114 = load i32, ptr %113, align 4
  %115 = load ptr, ptr %4, align 8
  %116 = getelementptr inbounds i32, ptr %115, i64 8
  %117 = load i32, ptr %116, align 4
  %118 = load ptr, ptr %4, align 8
  %119 = getelementptr inbounds i32, ptr %118, i64 9
  %120 = load i32, ptr %119, align 4
  %121 = call i32 (ptr, ...) @printf(ptr noundef @.str.10, ptr noundef %111, i32 noundef %114, i32 noundef %117, i32 noundef %120)
  %122 = load ptr, ptr %6, align 8
  %123 = load ptr, ptr %4, align 8
  %124 = getelementptr inbounds i32, ptr %123, i64 3
  %125 = load i32, ptr %124, align 4
  %126 = load ptr, ptr %4, align 8
  %127 = getelementptr inbounds i32, ptr %126, i64 4
  %128 = load i32, ptr %127, align 4
  %129 = load ptr, ptr %4, align 8
  %130 = getelementptr inbounds i32, ptr %129, i64 5
  %131 = load i32, ptr %130, align 4
  %132 = load ptr, ptr %4, align 8
  %133 = getelementptr inbounds i32, ptr %132, i64 6
  %134 = load i32, ptr %133, align 4
  %135 = call i32 (ptr, ...) @printf(ptr noundef @.str.11, ptr noundef %122, i32 noundef %125, i32 noundef %128, i32 noundef %131, i32 noundef %134)
  %136 = load ptr, ptr %6, align 8
  %137 = load ptr, ptr %4, align 8
  %138 = getelementptr inbounds i32, ptr %137, i64 0
  %139 = load i32, ptr %138, align 4
  %140 = load ptr, ptr %4, align 8
  %141 = getelementptr inbounds i32, ptr %140, i64 1
  %142 = load i32, ptr %141, align 4
  %143 = load ptr, ptr %4, align 8
  %144 = getelementptr inbounds i32, ptr %143, i64 2
  %145 = load i32, ptr %144, align 4
  %146 = call i32 (ptr, ...) @printf(ptr noundef @.str.10, ptr noundef %136, i32 noundef %139, i32 noundef %142, i32 noundef %145)
  br label %147

147:                                              ; preds = %102, %45
  br label %148

148:                                              ; preds = %147, %22
  ret void
}