; Function Attrs: mustprogress nofree nounwind uwtable
define void @_ZNK10OpenSubdiv6v3_6_03Bfr19RegularPatchBuilder5printEPKi(ptr noundef nonnull readonly align 8 captures(none) dereferenceable(24) %0, ptr noundef readonly %1) local_unnamed_addr #3 align 2 {
  %puts = tail call i32 @puts(ptr nonnull dereferenceable(1) @str)
  %3 = getelementptr inbounds nuw i8, ptr %0, i64 20
  %4 = load i32, ptr %3, align 4
  switch i32 %4, label %6 [
    i32 6, label %.sink.split
    i32 5, label %5
  ]

5:                                                ; preds = %2
  br label %.sink.split

.sink.split:                                      ; preds = %2, %5
  %str.1.sink = phi ptr [ @str.1, %5 ], [ @str.2, %2 ]
  %puts39 = tail call i32 @puts(ptr nonnull dereferenceable(1) %str.1.sink)
  br label %6

6:                                                ; preds = %.sink.split, %2
  %7 = getelementptr inbounds nuw i8, ptr %0, i64 16
  %8 = load i32, ptr %7, align 8
  %9 = tail call i32 (ptr, ...) @printf(ptr noundef nonnull dereferenceable(1) @.str.3, i32 noundef %8)
  %10 = getelementptr inbounds nuw i8, ptr %0, i64 8
  %11 = load i8, ptr %10, align 8
  %12 = and i8 %11, 1
  %13 = zext nneg i8 %12 to i32
  %14 = tail call i32 (ptr, ...) @printf(ptr noundef nonnull dereferenceable(1) @.str.4, i32 noundef %13)
  %15 = load i8, ptr %10, align 8
  %16 = lshr i8 %15, 1
  %17 = and i8 %16, 1
  %18 = zext nneg i8 %17 to i32
  %19 = tail call i32 (ptr, ...) @printf(ptr noundef nonnull dereferenceable(1) @.str.5, i32 noundef %18)
  %.not = icmp eq ptr %1, null
  br i1 %.not, label %87, label %20

20:                                               ; preds = %6
  %21 = load i8, ptr %10, align 8
  %22 = and i8 %21, 1
  %.not41 = icmp eq i8 %22, 0
  br i1 %.not41, label %59, label %23

23:                                               ; preds = %20
  %24 = getelementptr inbounds nuw i8, ptr %1, i64 48
  %25 = load i32, ptr %24, align 4
  %26 = getelementptr inbounds nuw i8, ptr %1, i64 52
  %27 = load i32, ptr %26, align 4
  %28 = getelementptr inbounds nuw i8, ptr %1, i64 56
  %29 = load i32, ptr %28, align 4
  %30 = getelementptr inbounds nuw i8, ptr %1, i64 60
  %31 = load i32, ptr %30, align 4
  %32 = tail call i32 (ptr, ...) @printf(ptr noundef nonnull dereferenceable(1) @.str.8, ptr noundef nonnull @.str.6, i32 noundef %25, i32 noundef %27, i32 noundef %29, i32 noundef %31)
  %33 = getelementptr inbounds nuw i8, ptr %1, i64 32
  %34 = load i32, ptr %33, align 4
  %35 = getelementptr inbounds nuw i8, ptr %1, i64 36
  %36 = load i32, ptr %35, align 4
  %37 = getelementptr inbounds nuw i8, ptr %1, i64 40
  %38 = load i32, ptr %37, align 4
  %39 = getelementptr inbounds nuw i8, ptr %1, i64 44
  %40 = load i32, ptr %39, align 4
  %41 = tail call i32 (ptr, ...) @printf(ptr noundef nonnull dereferenceable(1) @.str.8, ptr noundef nonnull @.str.7, i32 noundef %34, i32 noundef %36, i32 noundef %38, i32 noundef %40)
  %42 = getelementptr inbounds nuw i8, ptr %1, i64 16
  %43 = load i32, ptr %42, align 4
  %44 = getelementptr inbounds nuw i8, ptr %1, i64 20
  %45 = load i32, ptr %44, align 4
  %46 = getelementptr inbounds nuw i8, ptr %1, i64 24
  %47 = load i32, ptr %46, align 4
  %48 = getelementptr inbounds nuw i8, ptr %1, i64 28
  %49 = load i32, ptr %48, align 4
  %50 = tail call i32 (ptr, ...) @printf(ptr noundef nonnull dereferenceable(1) @.str.8, ptr noundef nonnull @.str.7, i32 noundef %43, i32 noundef %45, i32 noundef %47, i32 noundef %49)
  %51 = load i32, ptr %1, align 4
  %52 = getelementptr inbounds nuw i8, ptr %1, i64 4
  %53 = load i32, ptr %52, align 4
  %54 = getelementptr inbounds nuw i8, ptr %1, i64 8
  %55 = load i32, ptr %54, align 4
  %56 = getelementptr inbounds nuw i8, ptr %1, i64 12
  %57 = load i32, ptr %56, align 4
  %58 = tail call i32 (ptr, ...) @printf(ptr noundef nonnull dereferenceable(1) @.str.8, ptr noundef nonnull @.str.7, i32 noundef %51, i32 noundef %53, i32 noundef %55, i32 noundef %57)
  br label %87

59:                                               ; preds = %20
  %60 = getelementptr inbounds nuw i8, ptr %1, i64 40
  %61 = load i32, ptr %60, align 4
  %62 = getelementptr inbounds nuw i8, ptr %1, i64 44
  %63 = load i32, ptr %62, align 4
  %64 = tail call i32 (ptr, ...) @printf(ptr noundef nonnull dereferenceable(1) @.str.9, ptr noundef nonnull @.str.6, i32 noundef %61, i32 noundef %63)
  %65 = getelementptr inbounds nuw i8, ptr %1, i64 28
  %66 = load i32, ptr %65, align 4
  %67 = getelementptr inbounds nuw i8, ptr %1, i64 32
  %68 = load i32, ptr %67, align 4
  %69 = getelementptr inbounds nuw i8, ptr %1, i64 36
  %70 = load i32, ptr %69, align 4
  %71 = tail call i32 (ptr, ...) @printf(ptr noundef nonnull dereferenceable(1) @.str.10, ptr noundef nonnull @.str.7, i32 noundef %66, i32 noundef %68, i32 noundef %70)
  %72 = getelementptr inbounds nuw i8, ptr %1, i64 12
  %73 = load i32, ptr %72, align 4
  %74 = getelementptr inbounds nuw i8, ptr %1, i64 16
  %75 = load i32, ptr %74, align 4
  %76 = getelementptr inbounds nuw i8, ptr %1, i64 20
  %77 = load i32, ptr %76, align 4
  %78 = getelementptr inbounds nuw i8, ptr %1, i64 24
  %79 = load i32, ptr %78, align 4
  %80 = tail call i32 (ptr, ...) @printf(ptr noundef nonnull dereferenceable(1) @.str.11, ptr noundef nonnull @.str.7, i32 noundef %73, i32 noundef %75, i32 noundef %77, i32 noundef %79)
  %81 = load i32, ptr %1, align 4
  %82 = getelementptr inbounds nuw i8, ptr %1, i64 4
  %83 = load i32, ptr %82, align 4
  %84 = getelementptr inbounds nuw i8, ptr %1, i64 8
  %85 = load i32, ptr %84, align 4
  %86 = tail call i32 (ptr, ...) @printf(ptr noundef nonnull dereferenceable(1) @.str.10, ptr noundef nonnull @.str.7, i32 noundef %81, i32 noundef %83, i32 noundef %85)
  br label %87

87:                                               ; preds = %23, %59, %6
  ret void
}